target datalayout = "e-m:e-p270:32:32-p271:32:32-p272:64:64-i64:64-i128:128-f80:128-n8:16:32:64-S128"
target triple = "x86_64-pc-linux-gnu"

%struct._h460_feature_t = type { i32, ptr, ptr, ptr, ptr, ptr, ptr, ptr, ptr }

@proto_h460 = internal global i32 0, align 4
@h460_name_handle = internal global ptr null, align 8
@.str.392 = private unnamed_addr constant [8 x i8] c"q931.ie\00", align 1
@q931_ie_handle = internal global ptr null, align 8
@.str.393 = private unnamed_addr constant [9 x i8] c"h225.ras\00", align 1
@h225_ras_handle = internal global ptr null, align 8
@.str.394 = private unnamed_addr constant [14 x i8] c"h225.gef.name\00", align 1
@.str.395 = private unnamed_addr constant [14 x i8] c"h245.gef.name\00", align 1
@.str.396 = private unnamed_addr constant [17 x i8] c"h225.gef.content\00", align 1
@.str.397 = private unnamed_addr constant [17 x i8] c"h245.gef.content\00", align 1

; Function Attrs: null_pointer_is_valid sspstrong uwtable
define hidden void @proto_reg_handoff_h460() #0 {
  %1 = alloca ptr, align 8
  call void @llvm.lifetime.start.p0(i64 8, ptr %1) #6
  %2 = load i32, ptr @proto_h460, align 4
  %3 = call ptr @find_dissector_add_dependency(ptr noundef @.str.392, i32 noundef %2)
  store ptr %3, ptr @q931_ie_handle, align 8
  %4 = load i32, ptr @proto_h460, align 4
  %5 = call ptr @find_dissector_add_dependency(ptr noundef @.str.393, i32 noundef %4)
  store ptr %5, ptr @h225_ras_handle, align 8
  store ptr @h460_feature_tab, ptr %1, align 8
  br label %6

6:                                                ; preds = %106, %0
  %7 = load ptr, ptr %1, align 8
  %8 = getelementptr inbounds nuw %struct._h460_feature_t, ptr %7, i32 0, i32 1
  %9 = load ptr, ptr %8, align 8
  %10 = icmp ne ptr %9, null
  br i1 %10, label %11, label %109

11:                                               ; preds = %6
  %12 = load ptr, ptr %1, align 8
  %13 = getelementptr inbounds nuw %struct._h460_feature_t, ptr %12, i32 0, i32 4
  %14 = load ptr, ptr %13, align 8
  %15 = icmp ne ptr %14, null
  br i1 %15, label %16, label %21

16:                                               ; preds = %11
  %17 = load ptr, ptr %1, align 8
  %18 = getelementptr inbounds nuw %struct._h460_feature_t, ptr %17, i32 0, i32 4
  %19 = load ptr, ptr %18, align 8
  %20 = load ptr, ptr @h460_name_handle, align 8
  call void @dissector_add_string(ptr noundef @.str.394, ptr noundef %19, ptr noundef %20)
  br label %21

21:                                               ; preds = %16, %11
  %22 = load ptr, ptr %1, align 8
  %23 = getelementptr inbounds nuw %struct._h460_feature_t, ptr %22, i32 0, i32 5
  %24 = load ptr, ptr %23, align 8
  %25 = icmp ne ptr %24, null
  br i1 %25, label %26, label %31

26:                                               ; preds = %21
  %27 = load ptr, ptr %1, align 8
  %28 = getelementptr inbounds nuw %struct._h460_feature_t, ptr %27, i32 0, i32 5
  %29 = load ptr, ptr %28, align 8
  %30 = load ptr, ptr @h460_name_handle, align 8
  call void @dissector_add_string(ptr noundef @.str.394, ptr noundef %29, ptr noundef %30)
  br label %31

31:                                               ; preds = %26, %21
  %32 = load ptr, ptr %1, align 8
  %33 = getelementptr inbounds nuw %struct._h460_feature_t, ptr %32, i32 0, i32 6
  %34 = load ptr, ptr %33, align 8
  %35 = icmp ne ptr %34, null
  br i1 %35, label %36, label %41

36:                                               ; preds = %31
  %37 = load ptr, ptr %1, align 8
  %38 = getelementptr inbounds nuw %struct._h460_feature_t, ptr %37, i32 0, i32 6
  %39 = load ptr, ptr %38, align 8
  %40 = load ptr, ptr @h460_name_handle, align 8
  call void @dissector_add_string(ptr noundef @.str.395, ptr noundef %39, ptr noundef %40)
  br label %41

41:                                               ; preds = %36, %31
  %42 = load ptr, ptr %1, align 8
  %43 = getelementptr inbounds nuw %struct._h460_feature_t, ptr %42, i32 0, i32 7
  %44 = load ptr, ptr %43, align 8
  %45 = icmp ne ptr %44, null
  br i1 %45, label %46, label %51

46:                                               ; preds = %41
  %47 = load ptr, ptr %1, align 8
  %48 = getelementptr inbounds nuw %struct._h460_feature_t, ptr %47, i32 0, i32 7
  %49 = load ptr, ptr %48, align 8
  %50 = load ptr, ptr @h460_name_handle, align 8
  call void @dissector_add_string(ptr noundef @.str.395, ptr noundef %49, ptr noundef %50)
  br label %51

51:                                               ; preds = %46, %41
  %52 = load ptr, ptr %1, align 8
  %53 = getelementptr inbounds nuw %struct._h460_feature_t, ptr %52, i32 0, i32 8
  %54 = load ptr, ptr %53, align 8
  %55 = icmp ne ptr %54, null
  br i1 %55, label %56, label %105

56:                                               ; preds = %51
  %57 = load ptr, ptr %1, align 8
  %58 = getelementptr inbounds nuw %struct._h460_feature_t, ptr %57, i32 0, i32 4
  %59 = load ptr, ptr %58, align 8
  %60 = icmp ne ptr %59, null
  br i1 %60, label %61, label %68

61:                                               ; preds = %56
  %62 = load ptr, ptr %1, align 8
  %63 = getelementptr inbounds nuw %struct._h460_feature_t, ptr %62, i32 0, i32 4
  %64 = load ptr, ptr %63, align 8
  %65 = load ptr, ptr %1, align 8
  %66 = getelementptr inbounds nuw %struct._h460_feature_t, ptr %65, i32 0, i32 8
  %67 = load ptr, ptr %66, align 8
  call void @dissector_add_string(ptr noundef @.str.396, ptr noundef %64, ptr noundef %67)
  br label %68

68:                                               ; preds = %61, %56
  %69 = load ptr, ptr %1, align 8
  %70 = getelementptr inbounds nuw %struct._h460_feature_t, ptr %69, i32 0, i32 5
  %71 = load ptr, ptr %70, align 8
  %72 = icmp ne ptr %71, null
  br i1 %72, label %73, label %80

73:                                               ; preds = %68
  %74 = load ptr, ptr %1, align 8
  %75 = getelementptr inbounds nuw %struct._h460_feature_t, ptr %74, i32 0, i32 5
  %76 = load ptr, ptr %75, align 8
  %77 = load ptr, ptr %1, align 8
  %78 = getelementptr inbounds nuw %struct._h460_feature_t, ptr %77, i32 0, i32 8
  %79 = load ptr, ptr %78, align 8
  call void @dissector_add_string(ptr noundef @.str.396, ptr noundef %76, ptr noundef %79)
  br label %80

80:                                               ; preds = %73, %68
  %81 = load ptr, ptr %1, align 8
  %82 = getelementptr inbounds nuw %struct._h460_feature_t, ptr %81, i32 0, i32 6
  %83 = load ptr, ptr %82, align 8
  %84 = icmp ne ptr %83, null
  br i1 %84, label %85, label %92

85:                                               ; preds = %80
  %86 = load ptr, ptr %1, align 8
  %87 = getelementptr inbounds nuw %struct._h460_feature_t, ptr %86, i32 0, i32 6
  %88 = load ptr, ptr %87, align 8
  %89 = load ptr, ptr %1, align 8
  %90 = getelementptr inbounds nuw %struct._h460_feature_t, ptr %89, i32 0, i32 8
  %91 = load ptr, ptr %90, align 8
  call void @dissector_add_string(ptr noundef @.str.397, ptr noundef %88, ptr noundef %91)
  br label %92

92:                                               ; preds = %85, %80
  %93 = load ptr, ptr %1, align 8
  %94 = getelementptr inbounds nuw %struct._h460_feature_t, ptr %93, i32 0, i32 7
  %95 = load ptr, ptr %94, align 8
  %96 = icmp ne ptr %95, null
  br i1 %96, label %97, label %104

97:                                               ; preds = %92
  %98 = load ptr, ptr %1, align 8
  %99 = getelementptr inbounds nuw %struct._h460_feature_t, ptr %98, i32 0, i32 7
  %100 = load ptr, ptr %99, align 8
  %101 = load ptr, ptr %1, align 8
  %102 = getelementptr inbounds nuw %struct._h460_feature_t, ptr %101, i32 0, i32 8
  %103 = load ptr, ptr %102, align 8
  call void @dissector_add_string(ptr noundef @.str.397, ptr noundef %100, ptr noundef %103)
  br label %104

104:                                              ; preds = %97, %92
  br label %105

105:                                              ; preds = %104, %51
  br label %106

106:                                              ; preds = %105
  %107 = load ptr, ptr %1, align 8
  %108 = getelementptr %struct._h460_feature_t, ptr %107, i32 1
  store ptr %108, ptr %1, align 8
  br label %6, !llvm.loop !8

109:                                              ; preds = %6
  call void @llvm.lifetime.end.p0(i64 8, ptr %1) #6
  ret void
}