; Function Attrs: null_pointer_is_valid sspstrong uwtable
define hidden void @proto_reg_handoff_h460() local_unnamed_addr #0 {
  %1 = load i32, ptr @proto_h460, align 4
  %2 = tail call ptr @find_dissector_add_dependency(ptr noundef nonnull @.str.392, i32 noundef %1)
  store ptr %2, ptr @q931_ie_handle, align 8
  %3 = load i32, ptr @proto_h460, align 4
  %4 = tail call ptr @find_dissector_add_dependency(ptr noundef nonnull @.str.393, i32 noundef %3)
  store ptr %4, ptr @h225_ras_handle, align 8
  %5 = load ptr, ptr getelementptr inbounds nuw (i8, ptr @h460_feature_tab, i64 8), align 8
  %.not41 = icmp eq ptr %5, null
  br i1 %.not41, label %._crit_edge, label %.lr.ph

.lr.ph:                                           ; preds = %0, %43
  %.042 = phi ptr [ %44, %43 ], [ @h460_feature_tab, %0 ]
  %6 = getelementptr inbounds nuw i8, ptr %.042, i64 32
  %7 = load ptr, ptr %6, align 8
  %.not32 = icmp eq ptr %7, null
  br i1 %.not32, label %10, label %8

8:                                                ; preds = %.lr.ph
  %9 = load ptr, ptr @h460_name_handle, align 8
  tail call void @dissector_add_string(ptr noundef nonnull @.str.394, ptr noundef nonnull %7, ptr noundef %9)
  br label %10

10:                                               ; preds = %8, %.lr.ph
  %11 = getelementptr inbounds nuw i8, ptr %.042, i64 40
  %12 = load ptr, ptr %11, align 8
  %.not33 = icmp eq ptr %12, null
  br i1 %.not33, label %15, label %13

13:                                               ; preds = %10
  %14 = load ptr, ptr @h460_name_handle, align 8
  tail call void @dissector_add_string(ptr noundef nonnull @.str.394, ptr noundef nonnull %12, ptr noundef %14)
  br label %15

15:                                               ; preds = %13, %10
  %16 = getelementptr inbounds nuw i8, ptr %.042, i64 48
  %17 = load ptr, ptr %16, align 8
  %.not34 = icmp eq ptr %17, null
  br i1 %.not34, label %20, label %18

18:                                               ; preds = %15
  %19 = load ptr, ptr @h460_name_handle, align 8
  tail call void @dissector_add_string(ptr noundef nonnull @.str.395, ptr noundef nonnull %17, ptr noundef %19)
  br label %20

20:                                               ; preds = %18, %15
  %21 = getelementptr inbounds nuw i8, ptr %.042, i64 56
  %22 = load ptr, ptr %21, align 8
  %.not35 = icmp eq ptr %22, null
  br i1 %.not35, label %25, label %23

23:                                               ; preds = %20
  %24 = load ptr, ptr @h460_name_handle, align 8
  tail call void @dissector_add_string(ptr noundef nonnull @.str.395, ptr noundef nonnull %22, ptr noundef %24)
  br label %25

25:                                               ; preds = %23, %20
  %26 = getelementptr inbounds nuw i8, ptr %.042, i64 64
  %27 = load ptr, ptr %26, align 8
  %.not36 = icmp eq ptr %27, null
  br i1 %.not36, label %43, label %28

28:                                               ; preds = %25
  %29 = load ptr, ptr %6, align 8
  %.not37 = icmp eq ptr %29, null
  br i1 %.not37, label %31, label %30

30:                                               ; preds = %28
  tail call void @dissector_add_string(ptr noundef nonnull @.str.396, ptr noundef nonnull %29, ptr noundef nonnull %27)
  br label %31

31:                                               ; preds = %30, %28
  %32 = load ptr, ptr %11, align 8
  %.not38 = icmp eq ptr %32, null
  br i1 %.not38, label %35, label %33

33:                                               ; preds = %31
  %34 = load ptr, ptr %26, align 8
  tail call void @dissector_add_string(ptr noundef nonnull @.str.396, ptr noundef nonnull %32, ptr noundef %34)
  br label %35

35:                                               ; preds = %33, %31
  %36 = load ptr, ptr %16, align 8
  %.not39 = icmp eq ptr %36, null
  br i1 %.not39, label %39, label %37

37:                                               ; preds = %35
  %38 = load ptr, ptr %26, align 8
  tail call void @dissector_add_string(ptr noundef nonnull @.str.397, ptr noundef nonnull %36, ptr noundef %38)
  br label %39

39:                                               ; preds = %37, %35
  %40 = load ptr, ptr %21, align 8
  %.not40 = icmp eq ptr %40, null
  br i1 %.not40, label %43, label %41

41:                                               ; preds = %39
  %42 = load ptr, ptr %26, align 8
  tail call void @dissector_add_string(ptr noundef nonnull @.str.397, ptr noundef nonnull %40, ptr noundef %42)
  br label %43

43:                                               ; preds = %25, %41, %39
  %44 = getelementptr i8, ptr %.042, i64 72
  %45 = getelementptr i8, ptr %.042, i64 80
  %46 = load ptr, ptr %45, align 8
  %.not = icmp eq ptr %46, null
  br i1 %.not, label %._crit_edge, label %.lr.ph, !llvm.loop !9

._crit_edge:                                      ; preds = %43, %0
  ret void
}